target datalayout = "e-m:e-p270:32:32-p271:32:32-p272:64:64-i64:64-i128:128-f80:128-n8:16:32:64-S128"
target triple = "x86_64-unknown-linux-gnu"

%"class.rocksdb::Slice" = type { ptr, i64 }
%"class.rocksdb::InternalKeyComparator" = type { %"class.rocksdb::CompareInterface", %"class.rocksdb::UserComparatorWrapper" }
%"class.rocksdb::CompareInterface" = type { ptr }
%"class.rocksdb::UserComparatorWrapper" = type { ptr }
%"class.rocksdb::PlainTableReader" = type { %"class.rocksdb::TableReader", %"class.rocksdb::InternalKeyComparator", i8, %"class.rocksdb::Status", %"class.rocksdb::PlainTableIndex", i8, i32, i32, ptr, i8, %"class.rocksdb::PlainTableBloomV1", %"struct.rocksdb::PlainTableReaderFileInfo", %"class.rocksdb::Arena", %"class.std::unique_ptr.19", %"class.std::unique_ptr.19", ptr, %"class.std::unique_ptr.27", i64, %"class.std::shared_ptr", [8 x i8] }
%"class.rocksdb::TableReader" = type { ptr }
%"class.rocksdb::Status" = type { i8, i8, i8, i8, i8, i8, %"class.std::unique_ptr" }
%"class.std::unique_ptr" = type { %"struct.std::__uniq_ptr_data" }
%"struct.std::__uniq_ptr_data" = type { %"class.std::__uniq_ptr_impl" }
%"class.std::__uniq_ptr_impl" = type { %"class.std::tuple" }
%"class.std::tuple" = type { %"struct.std::_Tuple_impl" }
%"struct.std::_Tuple_impl" = type { %"struct.std::_Head_base.1" }
%"struct.std::_Head_base.1" = type { ptr }
%"class.rocksdb::PlainTableIndex" = type { i32, i32, i32, ptr, ptr }
%"class.rocksdb::PlainTableBloomV1" = type { i32, i32, i32, ptr }
%"struct.rocksdb::PlainTableReaderFileInfo" = type { i8, %"class.rocksdb::Slice", i32, %"class.std::unique_ptr.2" }
%"class.std::unique_ptr.2" = type { %"struct.std::__uniq_ptr_data.3" }
%"struct.std::__uniq_ptr_data.3" = type { %"class.std::__uniq_ptr_impl.4" }
%"class.std::__uniq_ptr_impl.4" = type { %"class.std::tuple.5" }
%"class.std::tuple.5" = type { %"struct.std::_Tuple_impl.6" }
%"struct.std::_Tuple_impl.6" = type { %"struct.std::_Head_base.9" }
%"struct.std::_Head_base.9" = type { ptr }
%"class.rocksdb::Arena" = type { %"class.rocksdb::Allocator", [8 x i8], [2048 x i8], i64, %"class.std::deque", %"class.std::deque.13", i64, ptr, ptr, i64, i64, i64, ptr }
%"class.rocksdb::Allocator" = type { ptr }
%"class.std::deque" = type { %"class.std::_Deque_base" }
%"class.std::_Deque_base" = type { %"struct.std::_Deque_base<std::unique_ptr<char[]>, std::allocator<std::unique_ptr<char[]>>>::_Deque_impl" }
%"struct.std::_Deque_base<std::unique_ptr<char[]>, std::allocator<std::unique_ptr<char[]>>>::_Deque_impl" = type { %"struct.std::_Deque_base<std::unique_ptr<char[]>, std::allocator<std::unique_ptr<char[]>>>::_Deque_impl_data" }
%"struct.std::_Deque_base<std::unique_ptr<char[]>, std::allocator<std::unique_ptr<char[]>>>::_Deque_impl_data" = type { ptr, i64, %"struct.std::_Deque_iterator", %"struct.std::_Deque_iterator" }
%"struct.std::_Deque_iterator" = type { ptr, ptr, ptr, ptr }
%"class.std::deque.13" = type { %"class.std::_Deque_base.14" }
%"class.std::_Deque_base.14" = type { %"struct.std::_Deque_base<rocksdb::MemMapping, std::allocator<rocksdb::MemMapping>>::_Deque_impl" }
%"struct.std::_Deque_base<rocksdb::MemMapping, std::allocator<rocksdb::MemMapping>>::_Deque_impl" = type { %"struct.std::_Deque_base<rocksdb::MemMapping, std::allocator<rocksdb::MemMapping>>::_Deque_impl_data" }
%"struct.std::_Deque_base<rocksdb::MemMapping, std::allocator<rocksdb::MemMapping>>::_Deque_impl_data" = type { ptr, i64, %"struct.std::_Deque_iterator.18", %"struct.std::_Deque_iterator.18" }
%"struct.std::_Deque_iterator.18" = type { ptr, ptr, ptr, ptr }
%"class.std::unique_ptr.19" = type { %"struct.std::__uniq_ptr_data.20" }
%"struct.std::__uniq_ptr_data.20" = type { %"class.std::__uniq_ptr_impl.21" }
%"class.std::__uniq_ptr_impl.21" = type { %"class.std::tuple.22" }
%"class.std::tuple.22" = type { %"struct.std::_Tuple_impl.23" }
%"struct.std::_Tuple_impl.23" = type { %"struct.std::_Tuple_impl.24", %"struct.std::_Head_base.26" }
%"struct.std::_Tuple_impl.24" = type { %"struct.std::_Head_base.25" }
%"struct.std::_Head_base.25" = type { %"struct.rocksdb::CustomDeleter" }
%"struct.rocksdb::CustomDeleter" = type { ptr }
%"struct.std::_Head_base.26" = type { ptr }
%"class.std::unique_ptr.27" = type { %"struct.std::__uniq_ptr_data.28" }
%"struct.std::__uniq_ptr_data.28" = type { %"class.std::__uniq_ptr_impl.29" }
%"class.std::__uniq_ptr_impl.29" = type { %"class.std::tuple.30" }
%"class.std::tuple.30" = type { %"struct.std::_Tuple_impl.31" }
%"struct.std::_Tuple_impl.31" = type { %"struct.std::_Head_base.34" }
%"struct.std::_Head_base.34" = type { ptr }
%"class.std::shared_ptr" = type { %"class.std::__shared_ptr" }
%"class.std::__shared_ptr" = type { ptr, %"class.std::__shared_count" }
%"class.std::__shared_count" = type { ptr }
%"struct.std::_Vector_base.142" = type { %"struct.std::_Vector_base<unsigned int, std::allocator<unsigned int>>::_Vector_impl" }
%"struct.std::_Vector_base<unsigned int, std::allocator<unsigned int>>::_Vector_impl" = type { %"struct.std::_Vector_base<unsigned int, std::allocator<unsigned int>>::_Vector_impl_data" }
%"struct.std::_Vector_base<unsigned int, std::allocator<unsigned int>>::_Vector_impl_data" = type { ptr, ptr, ptr }
%"class.__gnu_cxx::__normal_iterator" = type { ptr }

; Function Attrs: mustprogress nounwind uwtable
define linkonce_odr noundef i32 @_ZN7rocksdb23LegacyLocalityBloomImplILb1EE7GetLineEjj(i32 noundef %h, i32 noundef %num_lines) #1 comdat align 2 {
entry:
  %h.addr = alloca i32, align 4
  %num_lines.addr = alloca i32, align 4
  %offset_h = alloca i32, align 4
  store i32 %h, ptr %h.addr, align 4
  store i32 %num_lines, ptr %num_lines.addr, align 4
  %0 = load i32, ptr %h.addr, align 4
  %shr = lshr i32 %0, 11
  %1 = load i32, ptr %h.addr, align 4
  %shl = shl i32 %1, 21
  %or = or i32 %shr, %shl
  store i32 %or, ptr %offset_h, align 4
  %2 = load i32, ptr %offset_h, align 4
  %3 = load i32, ptr %num_lines.addr, align 4
  %rem = urem i32 %2, %3
  ret i32 %rem
}

; Function Attrs: mustprogress nounwind uwtable
define linkonce_odr void @_ZN7rocksdb25LegacyNoLocalityBloomImpl7AddHashEjjiPc(i32 noundef %h, i32 noundef %total_bits, i32 noundef %num_probes, ptr noundef %data) #1 comdat align 2 {
entry:
  %h.addr = alloca i32, align 4
  %total_bits.addr = alloca i32, align 4
  %num_probes.addr = alloca i32, align 4
  %data.addr = alloca ptr, align 8
  %delta = alloca i32, align 4
  %i = alloca i32, align 4
  %bitpos = alloca i32, align 4
  store i32 %h, ptr %h.addr, align 4
  store i32 %total_bits, ptr %total_bits.addr, align 4
  store i32 %num_probes, ptr %num_probes.addr, align 4
  store ptr %data, ptr %data.addr, align 8
  %0 = load i32, ptr %h.addr, align 4
  %shr = lshr i32 %0, 17
  %1 = load i32, ptr %h.addr, align 4
  %shl = shl i32 %1, 15
  %or = or i32 %shr, %shl
  store i32 %or, ptr %delta, align 4
  store i32 0, ptr %i, align 4
  br label %for.cond

for.cond:                                         ; preds = %for.inc, %entry
  %2 = load i32, ptr %i, align 4
  %3 = load i32, ptr %num_probes.addr, align 4
  %cmp = icmp slt i32 %2, %3
  br i1 %cmp, label %for.body, label %for.end

for.body:                                         ; preds = %for.cond
  %4 = load i32, ptr %h.addr, align 4
  %5 = load i32, ptr %total_bits.addr, align 4
  %rem = urem i32 %4, %5
  store i32 %rem, ptr %bitpos, align 4
  %6 = load i32, ptr %bitpos, align 4
  %rem1 = urem i32 %6, 8
  %shl2 = shl i32 1, %rem1
  %7 = load ptr, ptr %data.addr, align 8
  %8 = load i32, ptr %bitpos, align 4
  %div = udiv i32 %8, 8
  %idxprom = zext i32 %div to i64
  %arrayidx = getelementptr inbounds i8, ptr %7, i64 %idxprom
  %9 = load i8, ptr %arrayidx, align 1
  %conv = sext i8 %9 to i32
  %or3 = or i32 %conv, %shl2
  %conv4 = trunc i32 %or3 to i8
  store i8 %conv4, ptr %arrayidx, align 1
  %10 = load i32, ptr %delta, align 4
  %11 = load i32, ptr %h.addr, align 4
  %add = add i32 %11, %10
  store i32 %add, ptr %h.addr, align 4
  br label %for.inc

for.inc:                                          ; preds = %for.body
  %12 = load i32, ptr %i, align 4
  %inc = add nsw i32 %12, 1
  store i32 %inc, ptr %i, align 4
  br label %for.cond, !llvm.loop !12

for.end:                                          ; preds = %for.cond
  ret void
}

; Function Attrs: mustprogress uwtable
define linkonce_odr void @_ZN7rocksdb23LegacyLocalityBloomImplILb1EE7AddHashEjjiPci(i32 noundef %h, i32 noundef %num_lines, i32 noundef %num_probes, ptr noundef %data, i32 noundef %log2_cache_line_bytes) #0 comdat align 2 {
entry:
  %h.addr = alloca i32, align 4
  %num_lines.addr = alloca i32, align 4
  %num_probes.addr = alloca i32, align 4
  %data.addr = alloca ptr, align 8
  %log2_cache_line_bytes.addr = alloca i32, align 4
  %log2_cache_line_bits = alloca i32, align 4
  %data_at_offset = alloca ptr, align 8
  %delta = alloca i32, align 4
  %i = alloca i32, align 4
  %bitpos = alloca i32, align 4
  store i32 %h, ptr %h.addr, align 4
  store i32 %num_lines, ptr %num_lines.addr, align 4
  store i32 %num_probes, ptr %num_probes.addr, align 4
  store ptr %data, ptr %data.addr, align 8
  store i32 %log2_cache_line_bytes, ptr %log2_cache_line_bytes.addr, align 4
  %0 = load i32, ptr %log2_cache_line_bytes.addr, align 4
  %add = add nsw i32 %0, 3
  store i32 %add, ptr %log2_cache_line_bits, align 4
  %1 = load ptr, ptr %data.addr, align 8
  %2 = load i32, ptr %h.addr, align 4
  %3 = load i32, ptr %num_lines.addr, align 4
  %call = call noundef i32 @_ZN7rocksdb23LegacyLocalityBloomImplILb1EE7GetLineEjj(i32 noundef %2, i32 noundef %3)
  %4 = load i32, ptr %log2_cache_line_bytes.addr, align 4
  %shl = shl i32 %call, %4
  %idx.ext = zext i32 %shl to i64
  %add.ptr = getelementptr inbounds i8, ptr %1, i64 %idx.ext
  store ptr %add.ptr, ptr %data_at_offset, align 8
  %5 = load i32, ptr %h.addr, align 4
  %shr = lshr i32 %5, 17
  %6 = load i32, ptr %h.addr, align 4
  %shl1 = shl i32 %6, 15
  %or = or i32 %shr, %shl1
  store i32 %or, ptr %delta, align 4
  store i32 0, ptr %i, align 4
  br label %for.cond

for.cond:                                         ; preds = %for.inc, %entry
  %7 = load i32, ptr %i, align 4
  %8 = load i32, ptr %num_probes.addr, align 4
  %cmp = icmp slt i32 %7, %8
  br i1 %cmp, label %for.body, label %for.end

for.body:                                         ; preds = %for.cond
  %9 = load i32, ptr %h.addr, align 4
  %10 = load i32, ptr %log2_cache_line_bits, align 4
  %shl2 = shl i32 1, %10
  %sub = sub nsw i32 %shl2, 1
  %and = and i32 %9, %sub
  store i32 %and, ptr %bitpos, align 4
  %11 = load i32, ptr %bitpos, align 4
  %rem = urem i32 %11, 8
  %shl3 = shl i32 1, %rem
  %12 = load ptr, ptr %data_at_offset, align 8
  %13 = load i32, ptr %bitpos, align 4
  %div = udiv i32 %13, 8
  %idxprom = zext i32 %div to i64
  %arrayidx = getelementptr inbounds i8, ptr %12, i64 %idxprom
  %14 = load i8, ptr %arrayidx, align 1
  %conv = sext i8 %14 to i32
  %or4 = or i32 %conv, %shl3
  %conv5 = trunc i32 %or4 to i8
  store i8 %conv5, ptr %arrayidx, align 1
  %15 = load i32, ptr %h.addr, align 4
  %16 = load i32, ptr %log2_cache_line_bits, align 4
  %shr6 = lshr i32 %15, %16
  %17 = load i32, ptr %h.addr, align 4
  %18 = load i32, ptr %log2_cache_line_bits, align 4
  %sub7 = sub nsw i32 32, %18
  %shl8 = shl i32 %17, %sub7
  %or9 = or i32 %shr6, %shl8
  store i32 %or9, ptr %h.addr, align 4
  %19 = load i32, ptr %delta, align 4
  %20 = load i32, ptr %h.addr, align 4
  %add10 = add i32 %20, %19
  store i32 %add10, ptr %h.addr, align 4
  br label %for.inc

for.inc:                                          ; preds = %for.body
  %21 = load i32, ptr %i, align 4
  %inc = add nsw i32 %21, 1
  store i32 %inc, ptr %i, align 4
  br label %for.cond, !llvm.loop !11

for.end:                                          ; preds = %for.cond
  ret void
}

; Function Attrs: mustprogress nounwind uwtable
define linkonce_odr noundef nonnull align 8 dereferenceable(8) ptr @_ZNK9__gnu_cxx17__normal_iteratorIPKjSt6vectorIjSaIjEEE4baseEv(ptr noundef nonnull align 8 dereferenceable(8) %this) #1 comdat align 2 {
entry:
  %this.addr = alloca ptr, align 8
  store ptr %this, ptr %this.addr, align 8
  %this1 = load ptr, ptr %this.addr, align 8
  %_M_current = getelementptr inbounds %"class.__gnu_cxx::__normal_iterator", ptr %this1, i32 0, i32 0
  ret ptr %_M_current
}

; Function Attrs: mustprogress nounwind uwtable
define linkonce_odr void @_ZN9__gnu_cxx17__normal_iteratorIPKjSt6vectorIjSaIjEEEC2ERKS2_(ptr noundef nonnull align 8 dereferenceable(8) %this, ptr noundef nonnull align 8 dereferenceable(8) %__i) unnamed_addr #1 comdat align 2 {
entry:
  %this.addr = alloca ptr, align 8
  %__i.addr = alloca ptr, align 8
  store ptr %this, ptr %this.addr, align 8
  store ptr %__i, ptr %__i.addr, align 8
  %this1 = load ptr, ptr %this.addr, align 8
  %_M_current = getelementptr inbounds %"class.__gnu_cxx::__normal_iterator", ptr %this1, i32 0, i32 0
  %0 = load ptr, ptr %__i.addr, align 8
  %1 = load ptr, ptr %0, align 8
  store ptr %1, ptr %_M_current, align 8
  ret void
}

; Function Attrs: mustprogress nounwind uwtable
define linkonce_odr noundef nonnull align 8 dereferenceable(8) ptr @_ZN9__gnu_cxx17__normal_iteratorIPKjSt6vectorIjSaIjEEEppEv(ptr noundef nonnull align 8 dereferenceable(8) %this) #1 comdat align 2 {
entry:
  %this.addr = alloca ptr, align 8
  store ptr %this, ptr %this.addr, align 8
  %this1 = load ptr, ptr %this.addr, align 8
  %_M_current = getelementptr inbounds %"class.__gnu_cxx::__normal_iterator", ptr %this1, i32 0, i32 0
  %0 = load ptr, ptr %_M_current, align 8
  %incdec.ptr = getelementptr inbounds i32, ptr %0, i32 1
  store ptr %incdec.ptr, ptr %_M_current, align 8
  ret ptr %this1
}

; Function Attrs: mustprogress uwtable
define linkonce_odr void @_ZN7rocksdb17PlainTableBloomV17AddHashEj(ptr noundef nonnull align 8 dereferenceable(24) %this, i32 noundef %h) #0 comdat align 2 {
entry:
  %this.addr = alloca ptr, align 8
  %h.addr = alloca i32, align 4
  store ptr %this, ptr %this.addr, align 8
  store i32 %h, ptr %h.addr, align 4
  %this1 = load ptr, ptr %this.addr, align 8
  %kNumBlocks = getelementptr inbounds %"class.rocksdb::PlainTableBloomV1", ptr %this1, i32 0, i32 1
  %0 = load i32, ptr %kNumBlocks, align 4
  %cmp = icmp ne i32 %0, 0
  br i1 %cmp, label %if.then, label %if.else

if.then:                                          ; preds = %entry
  %1 = load i32, ptr %h.addr, align 4
  %kNumBlocks2 = getelementptr inbounds %"class.rocksdb::PlainTableBloomV1", ptr %this1, i32 0, i32 1
  %2 = load i32, ptr %kNumBlocks2, align 4
  %kNumProbes = getelementptr inbounds %"class.rocksdb::PlainTableBloomV1", ptr %this1, i32 0, i32 2
  %3 = load i32, ptr %kNumProbes, align 8
  %data_ = getelementptr inbounds %"class.rocksdb::PlainTableBloomV1", ptr %this1, i32 0, i32 3
  %4 = load ptr, ptr %data_, align 8
  call void @_ZN7rocksdb23LegacyLocalityBloomImplILb1EE7AddHashEjjiPci(i32 noundef %1, i32 noundef %2, i32 noundef %3, ptr noundef %4, i32 noundef 6)
  br label %if.end

if.else:                                          ; preds = %entry
  %5 = load i32, ptr %h.addr, align 4
  %kTotalBits = getelementptr inbounds %"class.rocksdb::PlainTableBloomV1", ptr %this1, i32 0, i32 0
  %6 = load i32, ptr %kTotalBits, align 8
  %kNumProbes3 = getelementptr inbounds %"class.rocksdb::PlainTableBloomV1", ptr %this1, i32 0, i32 2
  %7 = load i32, ptr %kNumProbes3, align 8
  %data_4 = getelementptr inbounds %"class.rocksdb::PlainTableBloomV1", ptr %this1, i32 0, i32 3
  %8 = load ptr, ptr %data_4, align 8
  call void @_ZN7rocksdb25LegacyNoLocalityBloomImpl7AddHashEjjiPc(i32 noundef %5, i32 noundef %6, i32 noundef %7, ptr noundef %8)
  br label %if.end

if.end:                                           ; preds = %if.else, %if.then
  ret void
}

; Function Attrs: mustprogress nounwind uwtable
define linkonce_odr noundef nonnull align 4 dereferenceable(4) ptr @_ZNK9__gnu_cxx17__normal_iteratorIPKjSt6vectorIjSaIjEEEdeEv(ptr noundef nonnull align 8 dereferenceable(8) %this) #1 comdat align 2 {
entry:
  %this.addr = alloca ptr, align 8
  store ptr %this, ptr %this.addr, align 8
  %this1 = load ptr, ptr %this.addr, align 8
  %_M_current = getelementptr inbounds %"class.__gnu_cxx::__normal_iterator", ptr %this1, i32 0, i32 0
  %0 = load ptr, ptr %_M_current, align 8
  ret ptr %0
}

; Function Attrs: mustprogress nounwind uwtable
define linkonce_odr noundef zeroext i1 @_ZN9__gnu_cxxneIPKjSt6vectorIjSaIjEEEEbRKNS_17__normal_iteratorIT_T0_EESB_(ptr noundef nonnull align 8 dereferenceable(8) %__lhs, ptr noundef nonnull align 8 dereferenceable(8) %__rhs) #1 comdat {
entry:
  %__lhs.addr = alloca ptr, align 8
  %__rhs.addr = alloca ptr, align 8
  store ptr %__lhs, ptr %__lhs.addr, align 8
  store ptr %__rhs, ptr %__rhs.addr, align 8
  %0 = load ptr, ptr %__lhs.addr, align 8
  %call = call noundef nonnull align 8 dereferenceable(8) ptr @_ZNK9__gnu_cxx17__normal_iteratorIPKjSt6vectorIjSaIjEEE4baseEv(ptr noundef nonnull align 8 dereferenceable(8) %0) #3
  %1 = load ptr, ptr %call, align 8
  %2 = load ptr, ptr %__rhs.addr, align 8
  %call1 = call noundef nonnull align 8 dereferenceable(8) ptr @_ZNK9__gnu_cxx17__normal_iteratorIPKjSt6vectorIjSaIjEEE4baseEv(ptr noundef nonnull align 8 dereferenceable(8) %2) #3
  %3 = load ptr, ptr %call1, align 8
  %cmp = icmp ne ptr %1, %3
  ret i1 %cmp
}

; Function Attrs: mustprogress nounwind uwtable
define linkonce_odr ptr @_ZNKSt6vectorIjSaIjEE3endEv(ptr noundef nonnull align 8 dereferenceable(24) %this) #1 comdat align 2 {
entry:
  %retval = alloca %"class.__gnu_cxx::__normal_iterator", align 8
  %this.addr = alloca ptr, align 8
  store ptr %this, ptr %this.addr, align 8
  %this1 = load ptr, ptr %this.addr, align 8
  %_M_impl = getelementptr inbounds %"struct.std::_Vector_base.142", ptr %this1, i32 0, i32 0
  %_M_finish = getelementptr inbounds %"struct.std::_Vector_base<unsigned int, std::allocator<unsigned int>>::_Vector_impl_data", ptr %_M_impl, i32 0, i32 1
  call void @_ZN9__gnu_cxx17__normal_iteratorIPKjSt6vectorIjSaIjEEEC2ERKS2_(ptr noundef nonnull align 8 dereferenceable(8) %retval, ptr noundef nonnull align 8 dereferenceable(8) %_M_finish) #3
  %coerce.dive = getelementptr inbounds %"class.__gnu_cxx::__normal_iterator", ptr %retval, i32 0, i32 0
  %0 = load ptr, ptr %coerce.dive, align 8
  ret ptr %0
}

; Function Attrs: mustprogress nounwind uwtable
define linkonce_odr ptr @_ZNKSt6vectorIjSaIjEE5beginEv(ptr noundef nonnull align 8 dereferenceable(24) %this) #1 comdat align 2 {
entry:
  %retval = alloca %"class.__gnu_cxx::__normal_iterator", align 8
  %this.addr = alloca ptr, align 8
  store ptr %this, ptr %this.addr, align 8
  %this1 = load ptr, ptr %this.addr, align 8
  %_M_impl = getelementptr inbounds %"struct.std::_Vector_base.142", ptr %this1, i32 0, i32 0
  %_M_start = getelementptr inbounds %"struct.std::_Vector_base<unsigned int, std::allocator<unsigned int>>::_Vector_impl_data", ptr %_M_impl, i32 0, i32 0
  call void @_ZN9__gnu_cxx17__normal_iteratorIPKjSt6vectorIjSaIjEEEC2ERKS2_(ptr noundef nonnull align 8 dereferenceable(8) %retval, ptr noundef nonnull align 8 dereferenceable(8) %_M_start) #3
  %coerce.dive = getelementptr inbounds %"class.__gnu_cxx::__normal_iterator", ptr %retval, i32 0, i32 0
  %0 = load ptr, ptr %coerce.dive, align 8
  ret ptr %0
}

; Function Attrs: mustprogress uwtable
define void @_ZN7rocksdb16PlainTableReader9FillBloomERKSt6vectorIjSaIjEE(ptr noundef nonnull align 16 dereferenceable(2536) %this, ptr noundef nonnull align 8 dereferenceable(24) %prefix_hashes) #0 align 2 {
entry:
  %this.addr = alloca ptr, align 8
  %prefix_hashes.addr = alloca ptr, align 8
  %__range1 = alloca ptr, align 8
  %__begin1 = alloca %"class.__gnu_cxx::__normal_iterator", align 8
  %__end1 = alloca %"class.__gnu_cxx::__normal_iterator", align 8
  %prefix_hash = alloca i32, align 4
  store ptr %this, ptr %this.addr, align 8
  store ptr %prefix_hashes, ptr %prefix_hashes.addr, align 8
  %this1 = load ptr, ptr %this.addr, align 8
  %0 = load ptr, ptr %prefix_hashes.addr, align 8
  store ptr %0, ptr %__range1, align 8
  %1 = load ptr, ptr %__range1, align 8
  %call = call ptr @_ZNKSt6vectorIjSaIjEE5beginEv(ptr noundef nonnull align 8 dereferenceable(24) %1) #3
  %coerce.dive = getelementptr inbounds %"class.__gnu_cxx::__normal_iterator", ptr %__begin1, i32 0, i32 0
  store ptr %call, ptr %coerce.dive, align 8
  %2 = load ptr, ptr %__range1, align 8
  %call2 = call ptr @_ZNKSt6vectorIjSaIjEE3endEv(ptr noundef nonnull align 8 dereferenceable(24) %2) #3
  %coerce.dive3 = getelementptr inbounds %"class.__gnu_cxx::__normal_iterator", ptr %__end1, i32 0, i32 0
  store ptr %call2, ptr %coerce.dive3, align 8
  br label %for.cond

for.cond:                                         ; preds = %for.inc, %entry
  %call4 = call noundef zeroext i1 @_ZN9__gnu_cxxneIPKjSt6vectorIjSaIjEEEEbRKNS_17__normal_iteratorIT_T0_EESB_(ptr noundef nonnull align 8 dereferenceable(8) %__begin1, ptr noundef nonnull align 8 dereferenceable(8) %__end1) #3
  br i1 %call4, label %for.body, label %for.end

for.body:                                         ; preds = %for.cond
  %call5 = call noundef nonnull align 4 dereferenceable(4) ptr @_ZNK9__gnu_cxx17__normal_iteratorIPKjSt6vectorIjSaIjEEEdeEv(ptr noundef nonnull align 8 dereferenceable(8) %__begin1) #3
  %3 = load i32, ptr %call5, align 4
  store i32 %3, ptr %prefix_hash, align 4
  %bloom_ = getelementptr inbounds %"class.rocksdb::PlainTableReader", ptr %this1, i32 0, i32 10
  %4 = load i32, ptr %prefix_hash, align 4
  call void @_ZN7rocksdb17PlainTableBloomV17AddHashEj(ptr noundef nonnull align 8 dereferenceable(24) %bloom_, i32 noundef %4)
  br label %for.inc

for.inc:                                          ; preds = %for.body
  %call6 = call noundef nonnull align 8 dereferenceable(8) ptr @_ZN9__gnu_cxx17__normal_iteratorIPKjSt6vectorIjSaIjEEEppEv(ptr noundef nonnull align 8 dereferenceable(8) %__begin1) #3
  br label %for.cond

for.end:                                          ; preds = %for.cond
  ret void
}