; Function Attrs: mustprogress nofree norecurse nosync nounwind memory(readwrite, inaccessiblemem: none) uwtable
define void @_ZN7rocksdb16PlainTableReader9FillBloomERKSt6vectorIjSaIjEE(ptr nocapture noundef nonnull readonly align 16 dereferenceable(2536) %this, ptr nocapture noundef nonnull readonly align 8 dereferenceable(24) %prefix_hashes) local_unnamed_addr #11 align 2 {
entry:
  %0 = load ptr, ptr %prefix_hashes, align 8
  %_M_finish.i = getelementptr inbounds i8, ptr %prefix_hashes, i64 8
  %1 = load ptr, ptr %_M_finish.i, align 8
  %cmp.i.not5 = icmp eq ptr %0, %1
  br i1 %cmp.i.not5, label %for.end, label %for.body.lr.ph

for.body.lr.ph:                                   ; preds = %entry
  %kNumBlocks.i = getelementptr inbounds i8, ptr %this, i64 116
  %kNumProbes.i = getelementptr inbounds i8, ptr %this, i64 120
  %data_.i = getelementptr inbounds i8, ptr %this, i64 128
  %bloom_ = getelementptr inbounds i8, ptr %this, i64 112
  br label %for.body

for.body:                                         ; preds = %for.body.lr.ph, %_ZN7rocksdb17PlainTableBloomV17AddHashEj.exit
  %__begin1.sroa.0.06 = phi ptr [ %0, %for.body.lr.ph ], [ %incdec.ptr.i, %_ZN7rocksdb17PlainTableBloomV17AddHashEj.exit ]
  %2 = load i32, ptr %__begin1.sroa.0.06, align 4
  %3 = load i32, ptr %kNumBlocks.i, align 4
  %cmp.not.i = icmp eq i32 %3, 0
  br i1 %cmp.not.i, label %if.else.i, label %if.then.i

if.then.i:                                        ; preds = %for.body
  %4 = load i32, ptr %kNumProbes.i, align 8
  %5 = load ptr, ptr %data_.i, align 16
  %or.i.i.i = tail call i32 @llvm.fshl.i32(i32 %2, i32 %2, i32 21)
  %rem.i.i.i = urem i32 %or.i.i.i, %3
  %shl.i.i = shl i32 %rem.i.i.i, 6
  %idx.ext.i.i = zext i32 %shl.i.i to i64
  %add.ptr.i.i = getelementptr inbounds i8, ptr %5, i64 %idx.ext.i.i
  %or.i.i = tail call i32 @llvm.fshl.i32(i32 %2, i32 %2, i32 15)
  %cmp13.i.i = icmp sgt i32 %4, 0
  br i1 %cmp13.i.i, label %for.body.i.i, label %_ZN7rocksdb17PlainTableBloomV17AddHashEj.exit

for.body.i.i:                                     ; preds = %if.then.i, %for.body.i.i
  %h.addr.015.i.i = phi i32 [ %add10.i.i, %for.body.i.i ], [ %2, %if.then.i ]
  %i.014.i.i = phi i32 [ %inc.i.i, %for.body.i.i ], [ 0, %if.then.i ]
  %rem.i.i = and i32 %h.addr.015.i.i, 7
  %shl3.i.i = shl nuw nsw i32 1, %rem.i.i
  %and.i.i = lshr i32 %h.addr.015.i.i, 3
  %div12.i.i = and i32 %and.i.i, 63
  %idxprom.i.i = zext nneg i32 %div12.i.i to i64
  %arrayidx.i.i = getelementptr inbounds i8, ptr %add.ptr.i.i, i64 %idxprom.i.i
  %6 = load i8, ptr %arrayidx.i.i, align 1
  %7 = trunc i32 %shl3.i.i to i8
  %conv5.i.i = or i8 %6, %7
  store i8 %conv5.i.i, ptr %arrayidx.i.i, align 1
  %or9.i.i = tail call i32 @llvm.fshl.i32(i32 %h.addr.015.i.i, i32 %h.addr.015.i.i, i32 23)
  %add10.i.i = add i32 %or9.i.i, %or.i.i
  %inc.i.i = add nuw nsw i32 %i.014.i.i, 1
  %exitcond.not.i.i = icmp eq i32 %inc.i.i, %4
  br i1 %exitcond.not.i.i, label %_ZN7rocksdb17PlainTableBloomV17AddHashEj.exit, label %for.body.i.i, !llvm.loop !10

if.else.i:                                        ; preds = %for.body
  %8 = load i32, ptr %bloom_, align 16
  %9 = load i32, ptr %kNumProbes.i, align 8
  %10 = load ptr, ptr %data_.i, align 16
  %or.i2.i = tail call i32 @llvm.fshl.i32(i32 %2, i32 %2, i32 15)
  %cmp7.i.i = icmp sgt i32 %9, 0
  br i1 %cmp7.i.i, label %for.body.i3.i, label %_ZN7rocksdb17PlainTableBloomV17AddHashEj.exit

for.body.i3.i:                                    ; preds = %if.else.i, %for.body.i3.i
  %h.addr.09.i.i = phi i32 [ %add.i.i, %for.body.i3.i ], [ %2, %if.else.i ]
  %i.08.i.i = phi i32 [ %inc.i7.i, %for.body.i3.i ], [ 0, %if.else.i ]
  %rem.i4.i = urem i32 %h.addr.09.i.i, %8
  %rem1.i.i = and i32 %rem.i4.i, 7
  %shl2.i.i = shl nuw nsw i32 1, %rem1.i.i
  %div6.i.i = lshr i32 %rem.i4.i, 3
  %idxprom.i5.i = zext nneg i32 %div6.i.i to i64
  %arrayidx.i6.i = getelementptr inbounds i8, ptr %10, i64 %idxprom.i5.i
  %11 = load i8, ptr %arrayidx.i6.i, align 1
  %12 = trunc i32 %shl2.i.i to i8
  %conv4.i.i = or i8 %11, %12
  store i8 %conv4.i.i, ptr %arrayidx.i6.i, align 1
  %add.i.i = add i32 %h.addr.09.i.i, %or.i2.i
  %inc.i7.i = add nuw nsw i32 %i.08.i.i, 1
  %exitcond.not.i8.i = icmp eq i32 %inc.i7.i, %9
  br i1 %exitcond.not.i8.i, label %_ZN7rocksdb17PlainTableBloomV17AddHashEj.exit, label %for.body.i3.i, !llvm.loop !11

_ZN7rocksdb17PlainTableBloomV17AddHashEj.exit:    ; preds = %for.body.i.i, %for.body.i3.i, %if.then.i, %if.else.i
  %incdec.ptr.i = getelementptr inbounds i8, ptr %__begin1.sroa.0.06, i64 4
  %cmp.i.not = icmp eq ptr %incdec.ptr.i, %1
  br i1 %cmp.i.not, label %for.end, label %for.body

for.end:                                          ; preds = %_ZN7rocksdb17PlainTableBloomV17AddHashEj.exit, %entry
  ret void
}